; Function Attrs: mustprogress uwtable
define hidden void @_ZN8facebook6hermes7tracing14TracingRuntime26createPropNameIDFromStringERKNS_3jsi6StringE(ptr noalias sret(%"class.facebook::jsi::PropNameID") align 8 %agg.result, ptr noundef nonnull align 8 dereferenceable(172) %this, ptr noundef nonnull align 8 dereferenceable(8) %str) unnamed_addr #0 align 2 personality ptr @__gxx_personality_v0 {
invoke.cont:
  %ref.tmp = alloca %"class.std::chrono::duration.37", align 8
  %ref.tmp2 = alloca i64, align 8
  %ref.tmp5 = alloca %"class.facebook::hermes::tracing::SynthTrace::TraceValue", align 8
  %plain_.i = getelementptr inbounds i8, ptr %this, i64 16
  %0 = load ptr, ptr %plain_.i, align 8, !noalias !183
  %vtable.i = load ptr, ptr %0, align 8, !noalias !183
  %vfn.i = getelementptr inbounds i8, ptr %vtable.i, i64 136
  %1 = load ptr, ptr %vfn.i, align 8, !noalias !183
  tail call void %1(ptr sret(%"class.facebook::jsi::PropNameID") align 8 %agg.result, ptr noundef nonnull align 8 dereferenceable(8) %0, ptr noundef nonnull align 8 dereferenceable(8) %str)
  %trace_ = getelementptr inbounds i8, ptr %this, i64 32
  %call.i = tail call i64 @_ZNSt6chrono3_V212steady_clock3nowEv() #27
  %startTime_.i = getelementptr inbounds i8, ptr %this, i64 160
  %retval.sroa.0.0.copyload.i1.i.i = load i64, ptr %startTime_.i, align 8
  %sub.i.i.i = sub nsw i64 %call.i, %retval.sroa.0.0.copyload.i1.i.i
  %div.i.i.i = sdiv i64 %sub.i.i.i, 1000000
  store i64 %div.i.i.i, ptr %ref.tmp, align 8
  %vtable = load ptr, ptr %this, align 8
  %vfn = getelementptr inbounds i8, ptr %vtable, i64 688
  %2 = load ptr, ptr %vfn, align 8
  %call4 = invoke noundef i64 %2(ptr noundef nonnull align 8 dereferenceable(172) %this, ptr noundef nonnull align 8 dereferenceable(8) %agg.result)
          to label %invoke.cont3 unwind label %lpad

invoke.cont3:                                     ; preds = %invoke.cont
  store i64 %call4, ptr %ref.tmp2, align 8
  %vtable6 = load ptr, ptr %this, align 8
  %vfn7 = getelementptr inbounds i8, ptr %vtable6, i64 680
  %3 = load ptr, ptr %vfn7, align 8
  %call9 = invoke noundef i64 %3(ptr noundef nonnull align 8 dereferenceable(172) %this, ptr noundef nonnull align 8 dereferenceable(8) %str)
          to label %invoke.cont8 unwind label %lpad

invoke.cont8:                                     ; preds = %invoke.cont3
  %call11 = invoke { i32, i64 } @_ZN8facebook6hermes7tracing10SynthTrace12encodeStringEm(i64 noundef %call9)
          to label %invoke.cont10 unwind label %lpad

invoke.cont10:                                    ; preds = %invoke.cont8
  %4 = extractvalue { i32, i64 } %call11, 0
  store i32 %4, ptr %ref.tmp5, align 8
  %5 = getelementptr inbounds i8, ptr %ref.tmp5, i64 8
  %6 = extractvalue { i32, i64 } %call11, 1
  store i64 %6, ptr %5, align 8
  invoke void @_ZN8facebook6hermes7tracing10SynthTrace12emplace_backINS2_22CreatePropNameIDRecordEJNSt6chrono8durationIlSt5ratioILl1ELl1000EEEEmNS2_10TraceValueEEEEvDpOT0_(ptr noundef nonnull align 8 dereferenceable(48) %trace_, ptr noundef nonnull align 8 dereferenceable(8) %ref.tmp, ptr noundef nonnull align 8 dereferenceable(8) %ref.tmp2, ptr noundef nonnull align 8 dereferenceable(16) %ref.tmp5)
          to label %nrvo.skipdtor unwind label %lpad

lpad:                                             ; preds = %invoke.cont10, %invoke.cont8, %invoke.cont3, %invoke.cont
  %7 = landingpad { ptr, i32 }
          cleanup
  %8 = load ptr, ptr %agg.result, align 8
  %tobool.not.i.i = icmp eq ptr %8, null
  br i1 %tobool.not.i.i, label %_ZN8facebook3jsi10PropNameIDD2Ev.exit, label %if.then.i.i

if.then.i.i:                                      ; preds = %lpad
  %vtable.i.i = load ptr, ptr %8, align 8
  %9 = load ptr, ptr %vtable.i.i, align 8
  invoke void %9(ptr noundef nonnull align 8 dereferenceable(8) %8)
          to label %_ZN8facebook3jsi10PropNameIDD2Ev.exit unwind label %terminate.lpad.i.i

terminate.lpad.i.i:                               ; preds = %if.then.i.i
  %10 = landingpad { ptr, i32 }
          catch ptr null
  %11 = extractvalue { ptr, i32 } %10, 0
  call void @__clang_call_terminate(ptr %11) #29
  unreachable

_ZN8facebook3jsi10PropNameIDD2Ev.exit:            ; preds = %lpad, %if.then.i.i
  resume { ptr, i32 } %7

nrvo.skipdtor:                                    ; preds = %invoke.cont10
  ret void
}